ARM GAS  C:\Users\youss\AppData\Local\Temp\ccneCMoQ.s 			page 1


   1              		.cpu cortex-m4
   2              		.eabi_attribute 27, 1
   3              		.eabi_attribute 28, 1
   4              		.eabi_attribute 20, 1
   5              		.eabi_attribute 21, 1
   6              		.eabi_attribute 23, 3
   7              		.eabi_attribute 24, 1
   8              		.eabi_attribute 25, 1
   9              		.eabi_attribute 26, 1
  10              		.eabi_attribute 30, 2
  11              		.eabi_attribute 34, 1
  12              		.eabi_attribute 18, 4
  13              		.file	"main.c"
  14              		.text
  15              	.Ltext0:
  16              		.cfi_sections	.debug_frame
  17              		.section	.text.startup.main,"ax",%progbits
  18              		.align	1
  19              		.p2align 4,,15
  20              		.global	main
  21              		.syntax unified
  22              		.thumb
  23              		.thumb_func
  24              		.fpu fpv4-sp-d16
  25              		.type	main, %function
  26              	main:
  27              	.LFB259:
  28              		.file 1 "main.c"
  29              		.loc 1 15 0
  30              		.cfi_startproc
  31              		@ Volatile: function does not return.
  32              		@ args = 0, pretend = 0, frame = 8
  33              		@ frame_needed = 0, uses_anonymous_args = 0
  34 0000 00B5     		push	{lr}
  35              		.cfi_def_cfa_offset 4
  36              		.cfi_offset 14, -4
  37 0002 094B     		ldr	r3, .L6
  38 0004 83B0     		sub	sp, sp, #12
  39              		.cfi_def_cfa_offset 16
  40              		.loc 1 15 0
  41 0006 1B68     		ldr	r3, [r3]
  42 0008 0193     		str	r3, [sp, #4]
  43              		.loc 1 17 0
  44 000a FFF7FEFF 		bl	halInit
  45              	.LVL0:
  46              		.loc 1 18 0
  47 000e FFF7FEFF 		bl	chSysInit
  48              	.LVL1:
  49              		.loc 1 19 0
  50 0012 FFF7FEFF 		bl	mpu_init
  51              	.LVL2:
  52              		.loc 1 24 0
  53 0016 0220     		movs	r0, #2
  54 0018 FFF7FEFF 		bl	set_front_led
  55              	.LVL3:
  56              	.L2:
  57              		.loc 1 31 0 discriminator 1
ARM GAS  C:\Users\youss\AppData\Local\Temp\ccneCMoQ.s 			page 2


  58 001c 4FF47A70 		mov	r0, #1000
  59 0020 FFF7FEFF 		bl	chThdSleep
  60              	.LVL4:
  61 0024 FAE7     		b	.L2
  62              	.L7:
  63 0026 00BF     		.align	2
  64              	.L6:
  65 0028 00000000 		.word	__stack_chk_guard
  66              		.cfi_endproc
  67              	.LFE259:
  68              		.size	main, .-main
  69              		.section	.text.__stack_chk_fail,"ax",%progbits
  70              		.align	1
  71              		.p2align 4,,15
  72              		.global	__stack_chk_fail
  73              		.syntax unified
  74              		.thumb
  75              		.thumb_func
  76              		.fpu fpv4-sp-d16
  77              		.type	__stack_chk_fail, %function
  78              	__stack_chk_fail:
  79              	.LFB260:
  80              		.loc 1 39 0
  81              		.cfi_startproc
  82              		@ args = 0, pretend = 0, frame = 8
  83              		@ frame_needed = 0, uses_anonymous_args = 0
  84 0000 00B5     		push	{lr}
  85              		.cfi_def_cfa_offset 4
  86              		.cfi_offset 14, -4
  87 0002 084B     		ldr	r3, .L13
  88 0004 83B0     		sub	sp, sp, #12
  89              		.cfi_def_cfa_offset 16
  90              		.loc 1 39 0
  91 0006 1A68     		ldr	r2, [r3]
  92 0008 0192     		str	r2, [sp, #4]
  93              		.loc 1 40 0
  94 000a 019A     		ldr	r2, [sp, #4]
  95 000c 1B68     		ldr	r3, [r3]
  96 000e 9A42     		cmp	r2, r3
  97 0010 05D1     		bne	.L12
  98 0012 0548     		ldr	r0, .L13+4
  99              		.loc 1 41 0
 100 0014 03B0     		add	sp, sp, #12
 101              		.cfi_remember_state
 102              		.cfi_def_cfa_offset 4
 103              		@ sp needed
 104 0016 5DF804EB 		ldr	lr, [sp], #4
 105              		.cfi_restore 14
 106              		.cfi_def_cfa_offset 0
 107              		.loc 1 40 0
 108 001a FFF7FEBF 		b	chSysHalt
 109              	.LVL5:
 110              	.L12:
 111              		.cfi_restore_state
 112 001e FFF7FEFF 		bl	__stack_chk_fail
 113              	.LVL6:
 114              	.L14:
ARM GAS  C:\Users\youss\AppData\Local\Temp\ccneCMoQ.s 			page 3


 115 0022 00BF     		.align	2
 116              	.L13:
 117 0024 00000000 		.word	__stack_chk_guard
 118 0028 00000000 		.word	.LC0
 119              		.cfi_endproc
 120              	.LFE260:
 121              		.size	__stack_chk_fail, .-__stack_chk_fail
 122              		.global	__stack_chk_guard
 123              		.section	.data.__stack_chk_guard,"aw",%progbits
 124              		.align	2
 125              		.type	__stack_chk_guard, %object
 126              		.size	__stack_chk_guard, 4
 127              	__stack_chk_guard:
 128 0000 96E3DEE2 		.word	-488709226
 129              		.section	.rodata.__stack_chk_fail.str1.4,"aMS",%progbits,1
 130              		.align	2
 131              	.LC0:
 132 0000 53746163 		.ascii	"Stack smashing detected\000"
 132      6B20736D 
 132      61736869 
 132      6E672064 
 132      65746563 
 133              		.text
 134              	.Letext0:
 135              		.file 2 "c:\\users\\youss\\desktop\\study\\sos25\\distributed_ro_lab\\myrepo\\eclipse_e-puck2\\too
 136              		.file 3 "c:\\users\\youss\\desktop\\study\\sos25\\distributed_ro_lab\\myrepo\\eclipse_e-puck2\\too
 137              		.file 4 "c:\\users\\youss\\desktop\\study\\sos25\\distributed_ro_lab\\myrepo\\eclipse_e-puck2\\too
 138              		.file 5 "c:\\users\\youss\\desktop\\study\\sos25\\distributed_ro_lab\\myrepo\\eclipse_e-puck2\\too
 139              		.file 6 "c:\\users\\youss\\desktop\\study\\sos25\\distributed_ro_lab\\myrepo\\eclipse_e-puck2\\too
 140              		.file 7 "c:\\users\\youss\\desktop\\study\\sos25\\distributed_ro_lab\\myrepo\\eclipse_e-puck2\\too
 141              		.file 8 "c:\\users\\youss\\desktop\\study\\sos25\\distributed_ro_lab\\myrepo\\eclipse_e-puck2\\too
 142              		.file 9 "c:\\users\\youss\\desktop\\study\\sos25\\distributed_ro_lab\\myrepo\\eclipse_e-puck2\\too
 143              		.file 10 "../e-puck2_main-processor/ChibiOS//os/rt/ports/ARMCMx/compilers/GCC/chtypes.h"
 144              		.file 11 "../e-puck2_main-processor/ChibiOS//os/rt/include/chsystypes.h"
 145              		.file 12 "../e-puck2_main-processor/ChibiOS//os/rt/include/chschd.h"
 146              		.file 13 "../e-puck2_main-processor/ChibiOS//os/ext/CMSIS/include/core_cm4.h"
 147              		.file 14 "../e-puck2_main-processor/ChibiOS//os/ext/CMSIS/ST/system_stm32f4xx.h"
 148              		.file 15 "../e-puck2_main-processor/ChibiOS//os/ext/CMSIS/ST/stm32f407xx.h"
 149              		.file 16 "../e-puck2_main-processor/ChibiOS//os/rt/ports/ARMCMx/chcore.h"
 150              		.file 17 "../e-puck2_main-processor/ChibiOS//os/rt/ports/ARMCMx/chcore_v7m.h"
 151              		.file 18 "../e-puck2_main-processor/ChibiOS//os/rt/include/chdebug.h"
 152              		.file 19 "../e-puck2_main-processor/ChibiOS//os/rt/include/chtm.h"
 153              		.file 20 "../e-puck2_main-processor/ChibiOS//os/rt/include/chstats.h"
 154              		.file 21 "../e-puck2_main-processor/ChibiOS//os/rt/include/chsem.h"
 155              		.file 22 "../e-puck2_main-processor/ChibiOS//os/rt/include/chmtx.h"
 156              		.file 23 "../e-puck2_main-processor/ChibiOS//os/rt/include/chregistry.h"
 157              		.file 24 "../e-puck2_main-processor/ChibiOS//os/rt/include/chevents.h"
 158              		.file 25 "../e-puck2_main-processor/ChibiOS//os/rt/include/chqueues.h"
 159              		.file 26 "../e-puck2_main-processor/ChibiOS//os/hal/ports/STM32/STM32F4xx/stm32_dma.h"
 160              		.file 27 "../e-puck2_main-processor/ChibiOS//os/hal/include/hal_ioblock.h"
 161              		.file 28 "../e-puck2_main-processor/ChibiOS//os/hal/ports/STM32/LLD/GPIOv2/pal_lld.h"
 162              		.file 29 "../e-puck2_main-processor/ChibiOS//os/hal/include/adc.h"
 163              		.file 30 "../e-puck2_main-processor/ChibiOS//os/hal/ports/STM32/STM32F4xx/adc_lld.h"
 164              		.file 31 "../e-puck2_main-processor/ChibiOS//os/hal/include/can.h"
 165              		.file 32 "../e-puck2_main-processor/ChibiOS//os/hal/ports/STM32/LLD/can_lld.h"
 166              		.file 33 "../e-puck2_main-processor/ChibiOS//os/hal/include/dac.h"
 167              		.file 34 "../e-puck2_main-processor/ChibiOS//os/hal/ports/STM32/LLD/DACv1/dac_lld.h"
ARM GAS  C:\Users\youss\AppData\Local\Temp\ccneCMoQ.s 			page 4


 168              		.file 35 "../e-puck2_main-processor/ChibiOS//os/hal/include/ext.h"
 169              		.file 36 "../e-puck2_main-processor/ChibiOS//os/hal/ports/STM32/LLD/ext_lld.h"
 170              		.file 37 "../e-puck2_main-processor/ChibiOS//os/hal/include/gpt.h"
 171              		.file 38 "../e-puck2_main-processor/ChibiOS//os/hal/ports/STM32/LLD/TIMv1/gpt_lld.h"
 172              		.file 39 "../e-puck2_main-processor/ChibiOS//os/hal/ports/STM32/LLD/TIMv1/stm32_tim.h"
 173              		.file 40 "../e-puck2_main-processor/ChibiOS//os/hal/include/i2c.h"
 174              		.file 41 "../e-puck2_main-processor/ChibiOS//os/hal/ports/STM32/LLD/I2Cv1/i2c_lld.h"
 175              		.file 42 "../e-puck2_main-processor/ChibiOS//os/hal/include/i2s.h"
 176              		.file 43 "../e-puck2_main-processor/ChibiOS//os/hal/ports/STM32/LLD/SPIv1/i2s_lld.h"
 177              		.file 44 "../e-puck2_main-processor/ChibiOS//os/hal/include/pwm.h"
 178              		.file 45 "../e-puck2_main-processor/ChibiOS//os/hal/ports/STM32/LLD/TIMv1/pwm_lld.h"
 179              		.file 46 "../e-puck2_main-processor/ChibiOS//os/hal/include/serial.h"
 180              		.file 47 "../e-puck2_main-processor/ChibiOS//os/hal/ports/STM32/LLD/USARTv1/serial_lld.h"
 181              		.file 48 "../e-puck2_main-processor/ChibiOS//os/hal/include/sdc.h"
 182              		.file 49 "../e-puck2_main-processor/ChibiOS//os/hal/ports/STM32/LLD/sdc_lld.h"
 183              		.file 50 "../e-puck2_main-processor/ChibiOS//os/hal/include/spi.h"
 184              		.file 51 "../e-puck2_main-processor/ChibiOS//os/hal/ports/STM32/LLD/SPIv1/spi_lld.h"
 185              		.file 52 "../e-puck2_main-processor/ChibiOS//os/hal/include/usb.h"
 186              		.file 53 "../e-puck2_main-processor/ChibiOS//os/hal/ports/STM32/LLD/OTGv1/usb_lld.h"
 187              		.file 54 "../e-puck2_main-processor/ChibiOS//os/hal/ports/STM32/LLD/OTGv1/stm32_otg.h"
 188              		.file 55 "c:\\users\\youss\\desktop\\study\\sos25\\distributed_ro_lab\\myrepo\\eclipse_e-puck2\\to
 189              		.file 56 "../e-puck2_main-processor/src/msgbus/messagebus.h"
 190              		.file 57 "../e-puck2_main-processor/src/parameter/parameter.h"
 191              		.file 58 "./main.h"
 192              		.file 59 "../e-puck2_main-processor/ChibiOS//os/rt/include/chsys.h"
 193              		.file 60 "../e-puck2_main-processor/ChibiOS//os/hal/include/hal.h"
 194              		.file 61 "../e-puck2_main-processor/src/memory_protection.h"
 195              		.file 62 "../e-puck2_main-processor/src/leds.h"
 196              		.file 63 "../e-puck2_main-processor/ChibiOS//os/rt/include/chthreads.h"